target datalayout = "e-m:e-p270:32:32-p271:32:32-p272:64:64-i64:64-i128:128-f80:128-n8:16:32:64-S128"
target triple = "x86_64-pc-linux-gnu"

%struct._generic_N_Vector = type { ptr, ptr }
%struct._generic_N_Vector_Ops = type { ptr, ptr, ptr, ptr, ptr, ptr, ptr, ptr, ptr, ptr, ptr, ptr, ptr, ptr, ptr, ptr, ptr, ptr, ptr, ptr, ptr, ptr, ptr, ptr, ptr }

; Function Attrs: nounwind uwtable
define void @N_VDestroy(ptr noundef %0) #0 {
  %2 = alloca ptr, align 8
  store ptr %0, ptr %2, align 8, !tbaa !3
  %3 = load ptr, ptr %2, align 8, !tbaa !3
  %4 = icmp eq ptr %3, null
  br i1 %4, label %5, label %6

5:                                                ; preds = %1
  br label %13

6:                                                ; preds = %1
  %7 = load ptr, ptr %2, align 8, !tbaa !3
  %8 = getelementptr inbounds nuw %struct._generic_N_Vector, ptr %7, i32 0, i32 1
  %9 = load ptr, ptr %8, align 8, !tbaa !8
  %10 = getelementptr inbounds nuw %struct._generic_N_Vector_Ops, ptr %9, i32 0, i32 2
  %11 = load ptr, ptr %10, align 8, !tbaa !14
  %12 = load ptr, ptr %2, align 8, !tbaa !3
  call void %11(ptr noundef %12)
  br label %13

13:                                               ; preds = %6, %5
  ret void
}

; Function Attrs: nounwind uwtable
define void @N_VDestroyVectorArray(ptr noundef %0, i32 noundef %1) #0 {
  %3 = alloca ptr, align 8
  %4 = alloca i32, align 4
  %5 = alloca i32, align 4
  %6 = alloca i32, align 4
  store ptr %0, ptr %3, align 8, !tbaa !45
  store i32 %1, ptr %4, align 4, !tbaa !43
  call void @llvm.lifetime.start.p0(i64 4, ptr %5) #4
  %7 = load ptr, ptr %3, align 8, !tbaa !45
  %8 = icmp eq ptr %7, null
  br i1 %8, label %9, label %10

9:                                                ; preds = %2
  store i32 1, ptr %6, align 4
  br label %26

10:                                               ; preds = %2
  store i32 0, ptr %5, align 4, !tbaa !43
  br label %11

11:                                               ; preds = %21, %10
  %12 = load i32, ptr %5, align 4, !tbaa !43
  %13 = load i32, ptr %4, align 4, !tbaa !43
  %14 = icmp slt i32 %12, %13
  br i1 %14, label %15, label %24

15:                                               ; preds = %11
  %16 = load ptr, ptr %3, align 8, !tbaa !45
  %17 = load i32, ptr %5, align 4, !tbaa !43
  %18 = sext i32 %17 to i64
  %19 = getelementptr inbounds ptr, ptr %16, i64 %18
  %20 = load ptr, ptr %19, align 8, !tbaa !3
  call void @N_VDestroy(ptr noundef %20)
  br label %21

21:                                               ; preds = %15
  %22 = load i32, ptr %5, align 4, !tbaa !43
  %23 = add nsw i32 %22, 1
  store i32 %23, ptr %5, align 4, !tbaa !43
  br label %11, !llvm.loop !49

24:                                               ; preds = %11
  %25 = load ptr, ptr %3, align 8, !tbaa !45
  call void @free(ptr noundef %25) #4
  store ptr null, ptr %3, align 8, !tbaa !45
  store i32 1, ptr %6, align 4
  br label %26

26:                                               ; preds = %24, %9
  call void @llvm.lifetime.end.p0(i64 4, ptr %5) #4
  ret void
}

; Function Attrs: nounwind uwtable
define ptr @N_VCloneEmpty(ptr noundef %0) #0 {
  %2 = alloca ptr, align 8
  %3 = alloca ptr, align 8
  store ptr %0, ptr %2, align 8, !tbaa !3
  call void @llvm.lifetime.start.p0(i64 8, ptr %3) #4
  store ptr null, ptr %3, align 8, !tbaa !3
  %4 = load ptr, ptr %2, align 8, !tbaa !3
  %5 = getelementptr inbounds nuw %struct._generic_N_Vector, ptr %4, i32 0, i32 1
  %6 = load ptr, ptr %5, align 8, !tbaa !8
  %7 = getelementptr inbounds nuw %struct._generic_N_Vector_Ops, ptr %6, i32 0, i32 1
  %8 = load ptr, ptr %7, align 8, !tbaa !13
  %9 = load ptr, ptr %2, align 8, !tbaa !3
  %10 = call ptr %8(ptr noundef %9)
  store ptr %10, ptr %3, align 8, !tbaa !3
  %11 = load ptr, ptr %3, align 8, !tbaa !3
  call void @llvm.lifetime.end.p0(i64 8, ptr %3) #4
  ret ptr %11
}

; Function Attrs: nounwind uwtable
define ptr @N_VCloneEmptyVectorArray(i32 noundef %0, ptr noundef %1) #0 {
  %3 = alloca ptr, align 8
  %4 = alloca i32, align 4
  %5 = alloca ptr, align 8
  %6 = alloca ptr, align 8
  %7 = alloca i32, align 4
  %8 = alloca i32, align 4
  store i32 %0, ptr %4, align 4, !tbaa !43
  store ptr %1, ptr %5, align 8, !tbaa !3
  call void @llvm.lifetime.start.p0(i64 8, ptr %6) #4
  store ptr null, ptr %6, align 8, !tbaa !45
  call void @llvm.lifetime.start.p0(i64 4, ptr %7) #4
  %9 = load i32, ptr %4, align 4, !tbaa !43
  %10 = icmp sle i32 %9, 0
  br i1 %10, label %11, label %12

11:                                               ; preds = %2
  store ptr null, ptr %3, align 8
  store i32 1, ptr %8, align 4
  br label %48

12:                                               ; preds = %2
  %13 = load i32, ptr %4, align 4, !tbaa !43
  %14 = sext i32 %13 to i64
  %15 = mul i64 %14, 8
  %16 = call noalias ptr @malloc(i64 noundef %15) #5
  store ptr %16, ptr %6, align 8, !tbaa !45
  %17 = load ptr, ptr %6, align 8, !tbaa !45
  %18 = icmp eq ptr %17, null
  br i1 %18, label %19, label %20

19:                                               ; preds = %12
  store ptr null, ptr %3, align 8
  store i32 1, ptr %8, align 4
  br label %48

20:                                               ; preds = %12
  store i32 0, ptr %7, align 4, !tbaa !43
  br label %21

21:                                               ; preds = %43, %20
  %22 = load i32, ptr %7, align 4, !tbaa !43
  %23 = load i32, ptr %4, align 4, !tbaa !43
  %24 = icmp slt i32 %22, %23
  br i1 %24, label %25, label %46

25:                                               ; preds = %21
  %26 = load ptr, ptr %5, align 8, !tbaa !3
  %27 = call ptr @N_VCloneEmpty(ptr noundef %26)
  %28 = load ptr, ptr %6, align 8, !tbaa !45
  %29 = load i32, ptr %7, align 4, !tbaa !43
  %30 = sext i32 %29 to i64
  %31 = getelementptr inbounds ptr, ptr %28, i64 %30
  store ptr %27, ptr %31, align 8, !tbaa !3
  %32 = load ptr, ptr %6, align 8, !tbaa !45
  %33 = load i32, ptr %7, align 4, !tbaa !43
  %34 = sext i32 %33 to i64
  %35 = getelementptr inbounds ptr, ptr %32, i64 %34
  %36 = load ptr, ptr %35, align 8, !tbaa !3
  %37 = icmp eq ptr %36, null
  br i1 %37, label %38, label %42

38:                                               ; preds = %25
  %39 = load ptr, ptr %6, align 8, !tbaa !45
  %40 = load i32, ptr %7, align 4, !tbaa !43
  %41 = sub nsw i32 %40, 1
  call void @N_VDestroyVectorArray(ptr noundef %39, i32 noundef %41)
  store ptr null, ptr %3, align 8
  store i32 1, ptr %8, align 4
  br label %48

42:                                               ; preds = %25
  br label %43

43:                                               ; preds = %42
  %44 = load i32, ptr %7, align 4, !tbaa !43
  %45 = add nsw i32 %44, 1
  store i32 %45, ptr %7, align 4, !tbaa !43
  br label %21, !llvm.loop !47

46:                                               ; preds = %21
  %47 = load ptr, ptr %6, align 8, !tbaa !45
  store ptr %47, ptr %3, align 8
  store i32 1, ptr %8, align 4
  br label %48

48:                                               ; preds = %46, %38, %19, %11
  call void @llvm.lifetime.end.p0(i64 4, ptr %7) #4
  call void @llvm.lifetime.end.p0(i64 8, ptr %6) #4
  %49 = load ptr, ptr %3, align 8
  ret ptr %49
}