; Function Attrs: nounwind uwtable
define noundef ptr @N_VCloneEmptyVectorArray(i32 noundef %0, ptr noundef %1) local_unnamed_addr #0 {
  %3 = icmp slt i32 %0, 1
  br i1 %3, label %.loopexit, label %4

4:                                                ; preds = %2
  %5 = zext nneg i32 %0 to i64
  %6 = shl nuw nsw i64 %5, 3
  %7 = tail call noalias ptr @malloc(i64 noundef %6) #4
  %8 = icmp eq ptr %7, null
  br i1 %8, label %.loopexit, label %.lr.ph

.lr.ph:                                           ; preds = %4
  %9 = getelementptr inbounds nuw i8, ptr %1, i64 8
  br label %10

10:                                               ; preds = %.lr.ph, %27
  %indvars.iv = phi i64 [ 0, %.lr.ph ], [ %indvars.iv.next, %27 ]
  %11 = load ptr, ptr %9, align 8, !tbaa !3
  %12 = getelementptr inbounds nuw i8, ptr %11, i64 8
  %13 = load ptr, ptr %12, align 8, !tbaa !11
  %14 = tail call ptr %13(ptr noundef %1) #3
  %15 = getelementptr inbounds nuw ptr, ptr %7, i64 %indvars.iv
  store ptr %14, ptr %15, align 8, !tbaa !35
  %16 = icmp eq ptr %14, null
  br i1 %16, label %.preheader.i, label %27

.preheader.i:                                     ; preds = %10
  %17 = icmp samesign ugt i64 %indvars.iv, 1
  br i1 %17, label %.lr.ph.preheader.i, label %N_VDestroyVectorArray.exit

.lr.ph.preheader.i:                               ; preds = %.preheader.i
  %18 = add nuw i64 %indvars.iv, 4294967295
  %wide.trip.count.i = and i64 %18, 4294967295
  br label %.lr.ph.i

.lr.ph.i:                                         ; preds = %N_VDestroy.exit.i, %.lr.ph.preheader.i
  %indvars.iv.i = phi i64 [ 0, %.lr.ph.preheader.i ], [ %indvars.iv.next.i, %N_VDestroy.exit.i ]
  %19 = getelementptr inbounds nuw ptr, ptr %7, i64 %indvars.iv.i
  %20 = load ptr, ptr %19, align 8, !tbaa !35
  %21 = icmp eq ptr %20, null
  br i1 %21, label %N_VDestroy.exit.i, label %22

22:                                               ; preds = %.lr.ph.i
  %23 = getelementptr inbounds nuw i8, ptr %20, i64 8
  %24 = load ptr, ptr %23, align 8, !tbaa !3
  %25 = getelementptr inbounds nuw i8, ptr %24, i64 16
  %26 = load ptr, ptr %25, align 8, !tbaa !12
  tail call void %26(ptr noundef nonnull %20) #3
  br label %N_VDestroy.exit.i

N_VDestroy.exit.i:                                ; preds = %22, %.lr.ph.i
  %indvars.iv.next.i = add nuw nsw i64 %indvars.iv.i, 1
  %exitcond.not.i = icmp eq i64 %indvars.iv.next.i, %wide.trip.count.i
  br i1 %exitcond.not.i, label %N_VDestroyVectorArray.exit, label %.lr.ph.i, !llvm.loop !37

N_VDestroyVectorArray.exit:                       ; preds = %N_VDestroy.exit.i, %.preheader.i
  tail call void @free(ptr noundef nonnull %7) #3
  br label %.loopexit

27:                                               ; preds = %10
  %indvars.iv.next = add nuw nsw i64 %indvars.iv, 1
  %exitcond.not = icmp eq i64 %indvars.iv.next, %5
  br i1 %exitcond.not, label %.loopexit, label %10, !llvm.loop !39

.loopexit:                                        ; preds = %27, %4, %2, %N_VDestroyVectorArray.exit
  %.014 = phi ptr [ null, %N_VDestroyVectorArray.exit ], [ null, %2 ], [ null, %4 ], [ %7, %27 ]
  ret ptr %.014
}